(lp0
S'http://newjersey.backpage.com/'
p1
aS'http://centraljersey.backpage.com/'
p2
aS'http://jerseyshore.backpage.com/'
p3
aS'http://northjersey.backpage.com/'
p4
aS'http://southjersey.backpage.com/'
p5
aS'http://newyork.backpage.com/'
p6
aS'http://bronx.backpage.com/'
p7
aS'http://brooklyn.backpage.com/'
p8
aS'http://longisland.backpage.com/'
p9
aS'http://manhattan.backpage.com/'
p10
aS'http://queens.backpage.com/'
p11
aS'http://statenisland.backpage.com/'
p12
a.